; Function Attrs: mustprogress nounwind uwtable
define dso_local void @_ZNK4llvm3opt8OptTable9ParseArgsENS_8ArrayRefIPKcEERjS6_jj(ptr dead_on_unwind noalias writable sret(%"class.llvm::opt::InputArgList") align 8 %0, ptr noundef nonnull align 8 dereferenceable(88) %1, ptr %2, i64 %3, ptr noundef nonnull writeonly align 4 captures(none) dereferenceable(4) initializes((0, 4)) %4, ptr noundef nonnull writeonly align 4 captures(none) dereferenceable(4) initializes((0, 4)) %5, i32 noundef %6, i32 noundef %7) local_unnamed_addr #1 align 2 {
  %9 = alloca %"class.std::function.37", align 8
  %.sroa.2.0.insert.ext = zext i32 %7 to i64
  %.sroa.2.0.insert.shift = shl nuw i64 %.sroa.2.0.insert.ext, 32
  %.sroa.0.0.insert.ext = zext i32 %6 to i64
  %.sroa.0.0.insert.insert = or disjoint i64 %.sroa.2.0.insert.shift, %.sroa.0.0.insert.ext
  %10 = getelementptr inbounds nuw i8, ptr %9, i64 16
  %11 = getelementptr inbounds nuw i8, ptr %9, i64 24
  %12 = getelementptr inbounds nuw i8, ptr %9, i64 8
  store i64 0, ptr %12, align 8
  store i64 %.sroa.0.0.insert.insert, ptr %9, align 8
  store ptr @"_ZNSt17_Function_handlerIFbRKN4llvm3opt6OptionEEZNKS1_8OptTable9ParseArgsENS0_8ArrayRefIPKcEERjSB_jjE3$_0E9_M_invokeERKSt9_Any_dataS4_", ptr %11, align 8
  store ptr @"_ZNSt17_Function_handlerIFbRKN4llvm3opt6OptionEEZNKS1_8OptTable9ParseArgsENS0_8ArrayRefIPKcEERjSB_jjE3$_0E10_M_managerERSt9_Any_dataRKSE_St18_Manager_operation", ptr %10, align 8
  call void @_ZNK4llvm3opt8OptTable17internalParseArgsENS_8ArrayRefIPKcEERjS6_St8functionIFbRKNS0_6OptionEEE(ptr dead_on_unwind writable sret(%"class.llvm::opt::InputArgList") align 8 %0, ptr noundef nonnull align 8 dereferenceable(88) %1, ptr %2, i64 %3, ptr noundef nonnull align 4 dereferenceable(4) %4, ptr noundef nonnull align 4 dereferenceable(4) %5, ptr noundef nonnull %9)
  %13 = load ptr, ptr %10, align 8
  %.not.i.i = icmp eq ptr %13, null
  br i1 %.not.i.i, label %_ZNSt8functionIFbRKN4llvm3opt6OptionEEED2Ev.exit, label %14

14:                                               ; preds = %8
  %15 = call noundef zeroext i1 %13(ptr noundef nonnull align 8 dereferenceable(32) %9, ptr noundef nonnull align 8 dereferenceable(32) %9, i32 noundef 3) #22
  br label %_ZNSt8functionIFbRKN4llvm3opt6OptionEEED2Ev.exit

_ZNSt8functionIFbRKN4llvm3opt6OptionEEED2Ev.exit: ; preds = %8, %14
  ret void
}